target datalayout = "e-m:e-p270:32:32-p271:32:32-p272:64:64-i64:64-i128:128-f80:128-n8:16:32:64-S128"
target triple = "x86_64-pc-linux-gnu"

%class.btVector3 = type { [4 x float] }
%"class.btInverseDynamicsBullet3::mat3x" = type { %struct.btMatrixX }
%struct.btMatrixX = type { i32, i32, i32, i32, i32, [4 x i8], %class.btAlignedObjectArray, %class.btAlignedObjectArray.6 }
%class.btAlignedObjectArray = type <{ [4 x i8], i32, i32, [4 x i8], ptr, i8, [7 x i8] }>
%class.btAlignedObjectArray.6 = type <{ [4 x i8], i32, i32, [4 x i8], ptr, i8, [7 x i8] }>
%"class.btInverseDynamicsBullet3::vec3" = type { %class.btVector3 }
%class.b3AlignedObjectArray.0 = type <{ [4 x i8], i32, i32, [4 x i8], ptr, i8, [7 x i8] }>
%"class.btInverseDynamicsBullet3::MultiBodyTree::MultiBodyImpl" = type { i32, i32, %"class.btInverseDynamicsBullet3::vec3", %class.b3AlignedObjectArray, %class.b3AlignedObjectArray.0, %class.b3AlignedObjectArray.2, %class.b3AlignedObjectArray.0, %class.b3AlignedObjectArray.0, %class.b3AlignedObjectArray.0, %class.b3AlignedObjectArray.0, %class.b3AlignedObjectArray.0, %class.b3AlignedObjectArray.4, %"class.btInverseDynamicsBullet3::mat3x" }
%class.b3AlignedObjectArray = type <{ [4 x i8], i32, i32, [4 x i8], ptr, i8, [7 x i8] }>
%class.b3AlignedObjectArray.2 = type <{ [4 x i8], i32, i32, [4 x i8], ptr, i8, [7 x i8] }>
%class.b3AlignedObjectArray.4 = type <{ [4 x i8], i32, i32, [4 x i8], ptr, i8, [7 x i8] }>

@.str.16 = private unnamed_addr constant [17 x i8] c"b3Error[%s,%d]:\0A\00", align 1
@.str.17 = private unnamed_addr constant [149 x i8] c"generated/home/dtcxzyw/WorkSpace/Projects/compilers/llvm-opt-benchmark/bench/bullet3/bullet3/src/BulletInverseDynamics/details/MultiBodyTreeImpl.cpp\00", align 1
@.str.30 = private unnamed_addr constant [35 x i8] c"invalid index %d (num_bodies= %d)\0A\00", align 1

; Function Attrs: inlinehint mustprogress nounwind uwtable
define linkonce_odr dso_local noundef nonnull align 4 dereferenceable(4) ptr @_ZN20b3AlignedObjectArrayIiEixEi(ptr noundef nonnull align 8 dereferenceable(25) %0, i32 noundef %1) #6 comdat align 2 {
  %3 = alloca ptr, align 8
  %4 = alloca i32, align 4
  store ptr %0, ptr %3, align 8, !tbaa !46
  store i32 %1, ptr %4, align 4, !tbaa !9
  %5 = load ptr, ptr %3, align 8
  %6 = getelementptr inbounds nuw %class.b3AlignedObjectArray.0, ptr %5, i32 0, i32 4
  %7 = load ptr, ptr %6, align 8, !tbaa !61
  %8 = load i32, ptr %4, align 4, !tbaa !9
  %9 = sext i32 %8 to i64
  %10 = getelementptr inbounds i32, ptr %7, i64 %9
  ret ptr %10
}

; Function Attrs: mustprogress uwtable
define dso_local noundef i32 @_ZN24btInverseDynamicsBullet313MultiBodyTree13MultiBodyImpl10setUserIntEii(ptr noundef nonnull align 8 dereferenceable(400) %0, i32 noundef %1, i32 noundef %2) #2 align 2 {
  %4 = alloca i32, align 4
  %5 = alloca ptr, align 8
  %6 = alloca i32, align 4
  %7 = alloca i32, align 4
  store ptr %0, ptr %5, align 8, !tbaa !12
  store i32 %1, ptr %6, align 4, !tbaa !9
  store i32 %2, ptr %7, align 4, !tbaa !9
  %8 = load ptr, ptr %5, align 8
  br label %9

9:                                                ; preds = %3
  %10 = load i32, ptr %6, align 4, !tbaa !9
  %11 = icmp slt i32 %10, 0
  br i1 %11, label %17, label %12

12:                                               ; preds = %9
  %13 = load i32, ptr %6, align 4, !tbaa !9
  %14 = getelementptr inbounds nuw %"class.btInverseDynamicsBullet3::MultiBodyTree::MultiBodyImpl", ptr %8, i32 0, i32 0
  %15 = load i32, ptr %14, align 8, !tbaa !14
  %16 = icmp sge i32 %13, %15
  br i1 %16, label %17, label %23

17:                                               ; preds = %12, %9
  br label %18

18:                                               ; preds = %17
  call void (ptr, ...) @b3OutputErrorMessageVarArgsInternal(ptr noundef @.str.16, ptr noundef @.str.17, i32 noundef 1035)
  %19 = load i32, ptr %6, align 4, !tbaa !9
  %20 = getelementptr inbounds nuw %"class.btInverseDynamicsBullet3::MultiBodyTree::MultiBodyImpl", ptr %8, i32 0, i32 0
  %21 = load i32, ptr %20, align 8, !tbaa !14
  call void (ptr, ...) @b3OutputErrorMessageVarArgsInternal(ptr noundef @.str.30, i32 noundef %19, i32 noundef %21)
  br label %22

22:                                               ; preds = %18
  store i32 -1, ptr %4, align 4
  br label %29

23:                                               ; preds = %12
  br label %24

24:                                               ; preds = %23
  %25 = load i32, ptr %7, align 4, !tbaa !9
  %26 = getelementptr inbounds nuw %"class.btInverseDynamicsBullet3::MultiBodyTree::MultiBodyImpl", ptr %8, i32 0, i32 10
  %27 = load i32, ptr %6, align 4, !tbaa !9
  %28 = call noundef nonnull align 4 dereferenceable(4) ptr @_ZN20b3AlignedObjectArrayIiEixEi(ptr noundef nonnull align 8 dereferenceable(25) %26, i32 noundef %27)
  store i32 %25, ptr %28, align 4, !tbaa !9
  store i32 0, ptr %4, align 4
  br label %29

29:                                               ; preds = %24, %22
  %30 = load i32, ptr %4, align 4
  ret i32 %30
}